target datalayout = "e-m:e-p270:32:32-p271:32:32-p272:64:64-i64:64-i128:128-f80:128-n8:16:32:64-S128"
target triple = "x86_64-pc-linux-gnu"

%"class.folly::AsyncFileWriter" = type { %"class.folly::AsyncLogWriter", %"class.folly::File" }
%"class.folly::AsyncLogWriter" = type { %"class.folly::LogWriter", %"struct.folly::Synchronized", %"class.std::condition_variable", %"class.std::condition_variable", %"class.folly::LockedPtr" }
%"class.folly::LogWriter" = type { ptr }
%"struct.folly::Synchronized" = type { %"struct.folly::AsyncLogWriter::Data", %"class.std::mutex" }
%"struct.folly::AsyncLogWriter::Data" = type { %"struct.std::array", i32, i64, i64, i64, i64, %"class.std::thread" }
%"struct.std::array" = type { [2 x %"class.std::vector"] }
%"class.std::vector" = type { %"struct.std::_Vector_base" }
%"struct.std::_Vector_base" = type { %"struct.std::_Vector_base<std::__cxx11::basic_string<char>, std::allocator<std::__cxx11::basic_string<char>>>::_Vector_impl" }
%"struct.std::_Vector_base<std::__cxx11::basic_string<char>, std::allocator<std::__cxx11::basic_string<char>>>::_Vector_impl" = type { %"struct.std::_Vector_base<std::__cxx11::basic_string<char>, std::allocator<std::__cxx11::basic_string<char>>>::_Vector_impl_data" }
%"struct.std::_Vector_base<std::__cxx11::basic_string<char>, std::allocator<std::__cxx11::basic_string<char>>>::_Vector_impl_data" = type { ptr, ptr, ptr }
%"class.std::thread" = type { %"class.std::thread::id" }
%"class.std::thread::id" = type { i64 }
%"class.std::mutex" = type { %"class.std::__mutex_base" }
%"class.std::__mutex_base" = type { %union.pthread_mutex_t }
%union.pthread_mutex_t = type { %struct.__pthread_mutex_s }
%struct.__pthread_mutex_s = type { i32, i32, i32, i32, i32, i16, i16, %struct.__pthread_internal_list }
%struct.__pthread_internal_list = type { ptr, ptr }
%"class.std::condition_variable" = type { %"class.std::__condvar" }
%"class.std::__condvar" = type { %union.pthread_cond_t }
%union.pthread_cond_t = type { %struct.__pthread_cond_s }
%struct.__pthread_cond_s = type { %union.__atomic_wide_counter, %union.__atomic_wide_counter, [2 x i32], [2 x i32], i32, i32, [2 x i32] }
%union.__atomic_wide_counter = type { i64 }
%"class.folly::LockedPtr" = type { %"class.std::unique_lock" }
%"class.std::unique_lock" = type <{ ptr, i8, [7 x i8] }>
%"class.folly::File" = type <{ i32, i8, [3 x i8] }>

; Function Attrs: mustprogress nounwind uwtable
define void @_ZN5folly15AsyncFileWriterD2Ev(ptr noundef nonnull align 8 dereferenceable(264) %0) unnamed_addr #0 align 2 personality ptr @__gxx_personality_v0 {
  %2 = alloca ptr, align 8
  store ptr %0, ptr %2, align 8, !tbaa !7
  %3 = load ptr, ptr %2, align 8
  store ptr getelementptr inbounds inrange(-16, 64) ({ [10 x ptr] }, ptr @_ZTVN5folly15AsyncFileWriterE, i32 0, i32 0, i32 2), ptr %3, align 8, !tbaa !18
  invoke void @_ZN5folly14AsyncLogWriter7cleanupEv(ptr noundef nonnull align 8 dereferenceable(256) %3)
          to label %4 unwind label %6

4:                                                ; preds = %1
  %5 = getelementptr inbounds nuw %"class.folly::AsyncFileWriter", ptr %3, i32 0, i32 1
  call void @_ZN5folly4FileD1Ev(ptr noundef nonnull align 4 dereferenceable(5) %5) #21
  call void @_ZN5folly14AsyncLogWriterD2Ev(ptr noundef nonnull align 8 dereferenceable(256) %3) #21
  ret void

6:                                                ; preds = %1
  %7 = landingpad { ptr, i32 }
          catch ptr null
  %8 = extractvalue { ptr, i32 } %7, 0
  call void @__clang_call_terminate(ptr %8) #23
  unreachable
}