; Function Attrs: mustprogress nounwind uwtable
define void @_ZN5folly15AsyncFileWriterD2Ev(ptr noundef nonnull align 8 dereferenceable(264) initializes((0, 8)) %0) unnamed_addr #0 align 2 personality ptr @__gxx_personality_v0 {
  store ptr getelementptr inbounds nuw inrange(-16, 64) (i8, ptr @_ZTVN5folly15AsyncFileWriterE, i64 16), ptr %0, align 8, !tbaa !16
  invoke void @_ZN5folly14AsyncLogWriter7cleanupEv(ptr noundef nonnull align 8 dereferenceable(256) %0)
          to label %2 unwind label %4

2:                                                ; preds = %1
  %3 = getelementptr inbounds nuw i8, ptr %0, i64 256
  tail call void @_ZN5folly4FileD1Ev(ptr noundef nonnull align 4 dereferenceable(5) %3) #22
  tail call void @_ZN5folly14AsyncLogWriterD2Ev(ptr noundef nonnull align 8 dereferenceable(256) %0) #22
  ret void

4:                                                ; preds = %1
  %5 = landingpad { ptr, i32 }
          catch ptr null
  %6 = extractvalue { ptr, i32 } %5, 0
  tail call void @__clang_call_terminate(ptr %6) #24
  unreachable
}